target datalayout = "e-m:e-p270:32:32-p271:32:32-p272:64:64-i64:64-i128:128-f80:128-n8:16:32:64-S128"
target triple = "x86_64-pc-linux-gnu"

%struct.StringInfoData = type { ptr, i32, i32, i32 }

@.str.1 = private unnamed_addr constant [11 x i8] c"pqformat.c\00", align 1
@.str.3 = private unnamed_addr constant [34 x i8] c"insufficient data left in message\00", align 1
@__func__.pq_getmsgtext = private unnamed_addr constant [14 x i8] c"pq_getmsgtext\00", align 1

; Function Attrs: nounwind uwtable
define dso_local ptr @pq_getmsgtext(ptr noundef %0, i32 noundef %1, ptr noundef %2) #0 {
  %4 = alloca ptr, align 8
  %5 = alloca i32, align 4
  %6 = alloca ptr, align 8
  %7 = alloca ptr, align 8
  %8 = alloca ptr, align 8
  store ptr %0, ptr %4, align 8
  store i32 %1, ptr %5, align 4
  store ptr %2, ptr %6, align 8
  call void @llvm.lifetime.start.p0(i64 8, ptr %7) #8
  call void @llvm.lifetime.start.p0(i64 8, ptr %8) #8
  %9 = load i32, ptr %5, align 4
  %10 = icmp slt i32 %9, 0
  br i1 %10, label %21, label %11

11:                                               ; preds = %3
  %12 = load i32, ptr %5, align 4
  %13 = load ptr, ptr %4, align 8
  %14 = getelementptr inbounds nuw %struct.StringInfoData, ptr %13, i32 0, i32 1
  %15 = load i32, ptr %14, align 8
  %16 = load ptr, ptr %4, align 8
  %17 = getelementptr inbounds nuw %struct.StringInfoData, ptr %16, i32 0, i32 3
  %18 = load i32, ptr %17, align 8
  %19 = sub i32 %15, %18
  %20 = icmp sgt i32 %12, %19
  br i1 %20, label %21, label %33

21:                                               ; preds = %11, %3
  br label %22

22:                                               ; preds = %21
  br i1 true, label %23, label %25

23:                                               ; preds = %22
  %24 = call zeroext i1 @errstart_cold(i32 noundef 21, ptr noundef null) #10
  br i1 %24, label %27, label %30

25:                                               ; preds = %22
  %26 = call zeroext i1 @errstart(i32 noundef 21, ptr noundef null)
  br i1 %26, label %27, label %30

27:                                               ; preds = %25, %23
  %28 = call i32 @errcode(i32 noundef 16908800)
  %29 = call i32 (ptr, ...) @errmsg(ptr noundef @.str.3)
  call void @errfinish(ptr noundef @.str.1, i32 noundef 554, ptr noundef @__func__.pq_getmsgtext)
  br label %30

30:                                               ; preds = %27, %25, %23
  unreachable

31:                                               ; No predecessors!
  br label %32

32:                                               ; preds = %31
  br label %33

33:                                               ; preds = %32, %11
  %34 = load ptr, ptr %4, align 8
  %35 = getelementptr inbounds nuw %struct.StringInfoData, ptr %34, i32 0, i32 0
  %36 = load ptr, ptr %35, align 8
  %37 = load ptr, ptr %4, align 8
  %38 = getelementptr inbounds nuw %struct.StringInfoData, ptr %37, i32 0, i32 3
  %39 = load i32, ptr %38, align 8
  %40 = sext i32 %39 to i64
  %41 = getelementptr inbounds i8, ptr %36, i64 %40
  store ptr %41, ptr %7, align 8
  %42 = load i32, ptr %5, align 4
  %43 = load ptr, ptr %4, align 8
  %44 = getelementptr inbounds nuw %struct.StringInfoData, ptr %43, i32 0, i32 3
  %45 = load i32, ptr %44, align 8
  %46 = add i32 %45, %42
  store i32 %46, ptr %44, align 8
  %47 = load ptr, ptr %7, align 8
  %48 = load i32, ptr %5, align 4
  %49 = call ptr @pg_client_to_server(ptr noundef %47, i32 noundef %48)
  store ptr %49, ptr %8, align 8
  %50 = load ptr, ptr %8, align 8
  %51 = load ptr, ptr %7, align 8
  %52 = icmp ne ptr %50, %51
  br i1 %52, label %53, label %58

53:                                               ; preds = %33
  %54 = load ptr, ptr %8, align 8
  %55 = call i64 @strlen(ptr noundef %54) #9
  %56 = trunc i64 %55 to i32
  %57 = load ptr, ptr %6, align 8
  store i32 %56, ptr %57, align 4
  br label %73

58:                                               ; preds = %33
  %59 = load i32, ptr %5, align 4
  %60 = add i32 %59, 1
  %61 = sext i32 %60 to i64
  %62 = call ptr @palloc(i64 noundef %61)
  store ptr %62, ptr %8, align 8
  %63 = load ptr, ptr %8, align 8
  %64 = load ptr, ptr %7, align 8
  %65 = load i32, ptr %5, align 4
  %66 = sext i32 %65 to i64
  call void @llvm.memcpy.p0.p0.i64(ptr align 1 %63, ptr align 1 %64, i64 %66, i1 false)
  %67 = load ptr, ptr %8, align 8
  %68 = load i32, ptr %5, align 4
  %69 = sext i32 %68 to i64
  %70 = getelementptr inbounds i8, ptr %67, i64 %69
  store i8 0, ptr %70, align 1
  %71 = load i32, ptr %5, align 4
  %72 = load ptr, ptr %6, align 8
  store i32 %71, ptr %72, align 4
  br label %73

73:                                               ; preds = %58, %53
  %74 = load ptr, ptr %8, align 8
  call void @llvm.lifetime.end.p0(i64 8, ptr %8) #8
  call void @llvm.lifetime.end.p0(i64 8, ptr %7) #8
  ret ptr %74
}