; Function Attrs: nounwind uwtable
define dso_local ptr @pq_getmsgtext(ptr noundef captures(none) %0, i32 noundef %1, ptr noundef writeonly captures(none) %2) local_unnamed_addr #0 {
  %4 = icmp slt i32 %1, 0
  br i1 %4, label %12, label %5

5:                                                ; preds = %3
  %6 = getelementptr inbounds nuw i8, ptr %0, i64 8
  %7 = load i32, ptr %6, align 8
  %8 = getelementptr inbounds nuw i8, ptr %0, i64 16
  %9 = load i32, ptr %8, align 8
  %10 = sub i32 %7, %9
  %11 = icmp sgt i32 %1, %10
  br i1 %11, label %12, label %16

12:                                               ; preds = %5, %3
  %13 = tail call zeroext i1 @errstart_cold(i32 noundef 21, ptr noundef null) #11
  tail call void @llvm.assume(i1 %13)
  %14 = tail call i32 @errcode(i32 noundef 16908800) #9
  %15 = tail call i32 (ptr, ...) @errmsg(ptr noundef nonnull @.str.3) #9
  tail call void @errfinish(ptr noundef nonnull @.str.1, i32 noundef 554, ptr noundef nonnull @__func__.pq_getmsgtext) #9
  unreachable

16:                                               ; preds = %5
  %17 = load ptr, ptr %0, align 8
  %18 = sext i32 %9 to i64
  %19 = getelementptr inbounds i8, ptr %17, i64 %18
  %20 = add i32 %9, %1
  store i32 %20, ptr %8, align 8
  %21 = tail call ptr @pg_client_to_server(ptr noundef %19, i32 noundef %1) #9
  %.not = icmp eq ptr %21, %19
  br i1 %.not, label %25, label %22

22:                                               ; preds = %16
  %23 = tail call i64 @strlen(ptr noundef nonnull dereferenceable(1) %21) #10
  %24 = trunc i64 %23 to i32
  br label %31

25:                                               ; preds = %16
  %26 = add nuw i32 %1, 1
  %27 = sext i32 %26 to i64
  %28 = tail call ptr @palloc(i64 noundef %27) #9
  %29 = zext nneg i32 %1 to i64
  tail call void @llvm.memcpy.p0.p0.i64(ptr align 1 %28, ptr align 1 %19, i64 %29, i1 false)
  %30 = getelementptr inbounds nuw i8, ptr %28, i64 %29
  store i8 0, ptr %30, align 1
  br label %31

31:                                               ; preds = %25, %22
  %storemerge = phi i32 [ %1, %25 ], [ %24, %22 ]
  %.0 = phi ptr [ %28, %25 ], [ %21, %22 ]
  store i32 %storemerge, ptr %2, align 4
  ret ptr %.0
}